; Function Attrs: mustprogress uwtable
define void @_ZN10PacketList21setVerticalAutoScrollEb(ptr noundef nonnull align 8 dereferenceable(464) %0, i1 noundef zeroext %1) local_unnamed_addr #0 align 2 {
  %3 = zext i1 %1 to i8
  %4 = getelementptr inbounds i8, ptr %0, i64 369
  store i8 %3, ptr %4, align 1
  br i1 %1, label %5, label %10

5:                                                ; preds = %2
  %6 = getelementptr inbounds i8, ptr %0, i64 368
  %7 = load i8, ptr %6, align 8
  %8 = and i8 %7, 1
  %.not = icmp eq i8 %8, 0
  br i1 %.not, label %10, label %9

9:                                                ; preds = %5
  tail call void @_ZN17QAbstractItemView14scrollToBottomEv(ptr noundef nonnull align 8 dereferenceable(40) %0)
  br label %10

10:                                               ; preds = %9, %5, %2
  ret void
}